target datalayout = "e-m:e-p270:32:32-p271:32:32-p272:64:64-i64:64-i128:128-f80:128-n8:16:32:64-S128"
target triple = "x86_64-pc-linux-gnu"

%struct.llama_token_data = type { i32, float, float }
%struct.llama_token_data_array = type { ptr, i64, i64, i8 }

; Function Attrs: mustprogress nounwind uwtable
define internal void @_ZL26llama_sampler_greedy_applyP13llama_samplerP22llama_token_data_array(ptr noundef %0, ptr noundef %1) #6 {
  %3 = alloca ptr, align 8
  %4 = alloca ptr, align 8
  %5 = alloca i64, align 8
  store ptr %0, ptr %3, align 8, !tbaa !12
  store ptr %1, ptr %4, align 8, !tbaa !19
  %6 = load ptr, ptr %4, align 8, !tbaa !19
  %7 = getelementptr inbounds nuw %struct.llama_token_data_array, ptr %6, i32 0, i32 2
  store i64 0, ptr %7, align 8, !tbaa !47
  call void @llvm.lifetime.start.p0(i64 8, ptr %5) #14
  store i64 1, ptr %5, align 8, !tbaa !51
  br label %8

8:                                                ; preds = %38, %2
  %9 = load i64, ptr %5, align 8, !tbaa !51
  %10 = load ptr, ptr %4, align 8, !tbaa !19
  %11 = getelementptr inbounds nuw %struct.llama_token_data_array, ptr %10, i32 0, i32 1
  %12 = load i64, ptr %11, align 8, !tbaa !46
  %13 = icmp ult i64 %9, %12
  br i1 %13, label %15, label %14

14:                                               ; preds = %8
  call void @llvm.lifetime.end.p0(i64 8, ptr %5) #14
  br label %41

15:                                               ; preds = %8
  %16 = load ptr, ptr %4, align 8, !tbaa !19
  %17 = getelementptr inbounds nuw %struct.llama_token_data_array, ptr %16, i32 0, i32 0
  %18 = load ptr, ptr %17, align 8, !tbaa !41
  %19 = load i64, ptr %5, align 8, !tbaa !51
  %20 = getelementptr inbounds nuw %struct.llama_token_data, ptr %18, i64 %19
  %21 = getelementptr inbounds nuw %struct.llama_token_data, ptr %20, i32 0, i32 1
  %22 = load float, ptr %21, align 4, !tbaa !37
  %23 = load ptr, ptr %4, align 8, !tbaa !19
  %24 = getelementptr inbounds nuw %struct.llama_token_data_array, ptr %23, i32 0, i32 0
  %25 = load ptr, ptr %24, align 8, !tbaa !41
  %26 = load ptr, ptr %4, align 8, !tbaa !19
  %27 = getelementptr inbounds nuw %struct.llama_token_data_array, ptr %26, i32 0, i32 2
  %28 = load i64, ptr %27, align 8, !tbaa !47
  %29 = getelementptr inbounds %struct.llama_token_data, ptr %25, i64 %28
  %30 = getelementptr inbounds nuw %struct.llama_token_data, ptr %29, i32 0, i32 1
  %31 = load float, ptr %30, align 4, !tbaa !37
  %32 = fcmp ogt float %22, %31
  br i1 %32, label %33, label %37

33:                                               ; preds = %15
  %34 = load i64, ptr %5, align 8, !tbaa !51
  %35 = load ptr, ptr %4, align 8, !tbaa !19
  %36 = getelementptr inbounds nuw %struct.llama_token_data_array, ptr %35, i32 0, i32 2
  store i64 %34, ptr %36, align 8, !tbaa !47
  br label %37

37:                                               ; preds = %33, %15
  br label %38

38:                                               ; preds = %37
  %39 = load i64, ptr %5, align 8, !tbaa !51
  %40 = add i64 %39, 1
  store i64 %40, ptr %5, align 8, !tbaa !51
  br label %8, !llvm.loop !270

41:                                               ; preds = %14
  ret void
}