; Function Attrs: mustprogress nofree norecurse nosync nounwind memory(read, argmem: readwrite, inaccessiblemem: none) uwtable
define internal void @_ZL26llama_sampler_greedy_applyP13llama_samplerP22llama_token_data_array(ptr readnone captures(none) %0, ptr noundef captures(none) initializes((16, 24)) %1) #17 {
  %3 = getelementptr inbounds nuw i8, ptr %1, i64 16
  store i64 0, ptr %3, align 8, !tbaa !23
  %4 = getelementptr inbounds nuw i8, ptr %1, i64 8
  %5 = load i64, ptr %4, align 8, !tbaa !22
  %6 = icmp ugt i64 %5, 1
  br i1 %6, label %.lr.ph, label %._crit_edge

.lr.ph:                                           ; preds = %2
  %7 = load ptr, ptr %1, align 8, !tbaa !17
  br label %8

._crit_edge:                                      ; preds = %16, %2
  ret void

8:                                                ; preds = %.lr.ph, %16
  %9 = phi i64 [ 0, %.lr.ph ], [ %17, %16 ]
  %.09 = phi i64 [ 1, %.lr.ph ], [ %18, %16 ]
  %10 = getelementptr inbounds nuw %struct.llama_token_data, ptr %7, i64 %.09, i32 1
  %11 = load float, ptr %10, align 4, !tbaa !209
  %12 = getelementptr inbounds %struct.llama_token_data, ptr %7, i64 %9, i32 1
  %13 = load float, ptr %12, align 4, !tbaa !209
  %14 = fcmp ogt float %11, %13
  br i1 %14, label %15, label %16

15:                                               ; preds = %8
  store i64 %.09, ptr %3, align 8, !tbaa !23
  br label %16

16:                                               ; preds = %8, %15
  %17 = phi i64 [ %9, %8 ], [ %.09, %15 ]
  %18 = add nuw i64 %.09, 1
  %exitcond.not = icmp eq i64 %18, %5
  br i1 %exitcond.not, label %._crit_edge, label %8, !llvm.loop !210
}